; Function Attrs: mustprogress nofree norecurse nosync nounwind willreturn memory(none) uwtable
define range(i32 48, 71) i32 @uriHexToLetterW(i32 noundef %0) local_unnamed_addr #6 {
  %2 = icmp ult i32 %0, 15
  br i1 %2, label %switch.lookup, label %uriHexToLetterExW.exit

switch.lookup:                                    ; preds = %1
  %3 = zext nneg i32 %0 to i64
  %switch.gep = getelementptr inbounds nuw [15 x i32], ptr @switch.table.uriHexToLetterW, i64 0, i64 %3
  %switch.load = load i32, ptr %switch.gep, align 4
  br label %uriHexToLetterExW.exit

uriHexToLetterExW.exit:                           ; preds = %1, %switch.lookup
  %.0.i = phi i32 [ %switch.load, %switch.lookup ], [ 70, %1 ]
  ret i32 %.0.i
}